target datalayout = "e-m:e-p270:32:32-p271:32:32-p272:64:64-i64:64-i128:128-f80:128-n8:16:32:64-S128"
target triple = "x86_64-pc-linux-gnu"

%struct.UToolMemory = type { [64 x i8], i32, i32, i32, i32, ptr, [8 x i8], [1 x i8], [15 x i8] }

; Function Attrs: mustprogress uwtable
define ptr @utm_allocN(ptr noundef %0, i32 noundef %1) #1 {
  %3 = alloca ptr, align 8
  %4 = alloca i32, align 4
  %5 = alloca ptr, align 8
  %6 = alloca i32, align 4
  %7 = alloca i32, align 4
  store ptr %0, ptr %3, align 8, !tbaa !55
  store i32 %1, ptr %4, align 4, !tbaa !22
  call void @llvm.lifetime.start.p0(i64 8, ptr %5) #14
  store ptr null, ptr %5, align 8, !tbaa !44
  call void @llvm.lifetime.start.p0(i64 4, ptr %6) #14
  %8 = load ptr, ptr %3, align 8, !tbaa !55
  %9 = getelementptr inbounds nuw %struct.UToolMemory, ptr %8, i32 0, i32 4
  %10 = load i32, ptr %9, align 4, !tbaa !62
  store i32 %10, ptr %6, align 4, !tbaa !22
  call void @llvm.lifetime.start.p0(i64 4, ptr %7) #14
  %11 = load i32, ptr %6, align 4, !tbaa !22
  %12 = load i32, ptr %4, align 4, !tbaa !22
  %13 = add nsw i32 %11, %12
  store i32 %13, ptr %7, align 4, !tbaa !22
  %14 = load ptr, ptr %3, align 8, !tbaa !55
  %15 = load i32, ptr %7, align 4, !tbaa !22
  %16 = call noundef signext i8 @_ZL15utm_hasCapacityP11UToolMemoryi(ptr noundef %14, i32 noundef %15)
  %17 = icmp ne i8 %16, 0
  br i1 %17, label %18, label %39

18:                                               ; preds = %2
  %19 = load ptr, ptr %3, align 8, !tbaa !55
  %20 = getelementptr inbounds nuw %struct.UToolMemory, ptr %19, i32 0, i32 5
  %21 = load ptr, ptr %20, align 16, !tbaa !57
  %22 = load i32, ptr %6, align 4, !tbaa !22
  %23 = load ptr, ptr %3, align 8, !tbaa !55
  %24 = getelementptr inbounds nuw %struct.UToolMemory, ptr %23, i32 0, i32 3
  %25 = load i32, ptr %24, align 8, !tbaa !61
  %26 = mul nsw i32 %22, %25
  %27 = sext i32 %26 to i64
  %28 = getelementptr inbounds i8, ptr %21, i64 %27
  store ptr %28, ptr %5, align 8, !tbaa !44
  %29 = load i32, ptr %7, align 4, !tbaa !22
  %30 = load ptr, ptr %3, align 8, !tbaa !55
  %31 = getelementptr inbounds nuw %struct.UToolMemory, ptr %30, i32 0, i32 4
  store i32 %29, ptr %31, align 4, !tbaa !62
  %32 = load ptr, ptr %5, align 8, !tbaa !44
  %33 = load i32, ptr %4, align 4, !tbaa !22
  %34 = load ptr, ptr %3, align 8, !tbaa !55
  %35 = getelementptr inbounds nuw %struct.UToolMemory, ptr %34, i32 0, i32 3
  %36 = load i32, ptr %35, align 8, !tbaa !61
  %37 = mul nsw i32 %33, %36
  %38 = sext i32 %37 to i64
  call void @llvm.memset.p0.i64(ptr align 1 %32, i8 0, i64 %38, i1 false)
  br label %39

39:                                               ; preds = %18, %2
  %40 = load ptr, ptr %5, align 8, !tbaa !44
  call void @llvm.lifetime.end.p0(i64 4, ptr %7) #14
  call void @llvm.lifetime.end.p0(i64 4, ptr %6) #14
  call void @llvm.lifetime.end.p0(i64 8, ptr %5) #14
  ret ptr %40
}