; Function Attrs: mustprogress uwtable
define ptr @utm_allocN(ptr noundef %0, i32 noundef %1) local_unnamed_addr #8 {
  %3 = getelementptr inbounds nuw i8, ptr %0, i64 76
  %4 = load i32, ptr %3, align 4, !tbaa !41
  %5 = add nsw i32 %4, %1
  tail call fastcc void @_ZL15utm_hasCapacityP11UToolMemoryi(ptr noundef %0, i32 noundef %5)
  %6 = getelementptr inbounds nuw i8, ptr %0, i64 80
  %7 = load ptr, ptr %6, align 16, !tbaa !36
  %8 = getelementptr inbounds nuw i8, ptr %0, i64 72
  %9 = load i32, ptr %8, align 8, !tbaa !40
  %10 = mul nsw i32 %9, %4
  %11 = sext i32 %10 to i64
  %12 = getelementptr inbounds i8, ptr %7, i64 %11
  store i32 %5, ptr %3, align 4, !tbaa !41
  %13 = mul nsw i32 %9, %1
  %14 = sext i32 %13 to i64
  tail call void @llvm.memset.p0.i64(ptr align 1 %12, i8 0, i64 %14, i1 false)
  ret ptr %12
}